; Function Attrs: mustprogress nofree norecurse nosync nounwind willreturn memory(argmem: readwrite) uwtable
define hidden void @_ZN5ceres8internal20RefinedDenseCholeskyC2ESt10unique_ptrINS0_13DenseCholeskyESt14default_deleteIS3_EES2_INS0_21DenseIterativeRefinerES4_IS7_EE(ptr nocapture noundef nonnull writeonly align 8 dereferenceable(40) %0, ptr nocapture noundef %1, ptr nocapture noundef %2) unnamed_addr #8 align 2 {
  store ptr getelementptr inbounds ({ [6 x ptr] }, ptr @_ZTVN5ceres8internal20RefinedDenseCholeskyE, i64 0, i32 0, i64 2), ptr %0, align 8
  %4 = getelementptr inbounds i8, ptr %0, i64 8
  %5 = load i64, ptr %1, align 8
  store i64 %5, ptr %4, align 8
  store ptr null, ptr %1, align 8
  %6 = getelementptr inbounds i8, ptr %0, i64 16
  %7 = load i64, ptr %2, align 8
  store i64 %7, ptr %6, align 8
  store ptr null, ptr %2, align 8
  %8 = getelementptr inbounds i8, ptr %0, i64 24
  store ptr null, ptr %8, align 8
  ret void
}